target datalayout = "e-m:e-p270:32:32-p271:32:32-p272:64:64-i64:64-i128:128-f80:128-n8:16:32:64-S128"
target triple = "x86_64-pc-linux-gnu"

%"class.llvm::StringRef" = type { ptr, i64 }
%"class.llvm::Pass.base" = type <{ ptr, ptr, ptr, i32 }>
%"class.llvm::FunctionPass.base" = type { %"class.llvm::Pass.base" }
%"struct.(anonymous namespace)::CheckDebugifyFunctionPass" = type <{ %"class.llvm::FunctionPass.base", [4 x i8], %"class.llvm::StringRef", %"class.llvm::StringRef", ptr, ptr, i32, i8, [3 x i8] }>
%"class.llvm::Pass" = type <{ ptr, ptr, ptr, i32, [4 x i8] }>

@.str.16 = private unnamed_addr constant [1 x i8] zeroinitializer, align 1
@_ZTVN4llvm4PassE = external unnamed_addr constant { [19 x ptr] }, align 8
@_ZTVN4llvm12FunctionPassE = external unnamed_addr constant { [20 x ptr] }, align 8
@_ZN12_GLOBAL__N_125CheckDebugifyFunctionPass2IDE = internal global i8 0, align 1

; Function Attrs: mustprogress nounwind uwtable
define linkonce_odr hidden void @_ZN4llvm4PassC2ENS_8PassKindERc(ptr noundef nonnull align 8 dereferenceable(28) %0, i32 noundef %1, ptr noundef nonnull align 1 dereferenceable(1) %2) unnamed_addr #1 comdat align 2 {
  %4 = alloca ptr, align 8
  %5 = alloca i32, align 4
  %6 = alloca ptr, align 8
  store ptr %0, ptr %4, align 8
  store i32 %1, ptr %5, align 4
  store ptr %2, ptr %6, align 8
  %7 = load ptr, ptr %4, align 8
  store ptr getelementptr inbounds inrange(-16, 136) ({ [19 x ptr] }, ptr @_ZTVN4llvm4PassE, i32 0, i32 0, i32 2), ptr %7, align 8
  %8 = getelementptr inbounds nuw %"class.llvm::Pass", ptr %7, i32 0, i32 1
  store ptr null, ptr %8, align 8
  %9 = getelementptr inbounds nuw %"class.llvm::Pass", ptr %7, i32 0, i32 2
  %10 = load ptr, ptr %6, align 8
  store ptr %10, ptr %9, align 8
  %11 = getelementptr inbounds nuw %"class.llvm::Pass", ptr %7, i32 0, i32 3
  %12 = load i32, ptr %5, align 4
  store i32 %12, ptr %11, align 8
  ret void
}

; Function Attrs: mustprogress nounwind uwtable
define linkonce_odr hidden void @_ZN4llvm12FunctionPassC2ERc(ptr noundef nonnull align 8 dereferenceable(28) %0, ptr noundef nonnull align 1 dereferenceable(1) %1) unnamed_addr #1 comdat align 2 {
  %3 = alloca ptr, align 8
  %4 = alloca ptr, align 8
  store ptr %0, ptr %3, align 8
  store ptr %1, ptr %4, align 8
  %5 = load ptr, ptr %3, align 8
  %6 = load ptr, ptr %4, align 8
  call void @_ZN4llvm4PassC2ENS_8PassKindERc(ptr noundef nonnull align 8 dereferenceable(28) %5, i32 noundef 2, ptr noundef nonnull align 1 dereferenceable(1) %6)
  store ptr getelementptr inbounds inrange(-16, 144) ({ [20 x ptr] }, ptr @_ZTVN4llvm12FunctionPassE, i32 0, i32 0, i32 2), ptr %5, align 8
  ret void
}

; Function Attrs: mustprogress nounwind uwtable
define linkonce_odr hidden noundef i64 @_ZNSt11char_traitsIcE6lengthEPKc(ptr noundef %0) #1 comdat align 2 {
  %2 = alloca ptr, align 8
  store ptr %0, ptr %2, align 8
  %3 = load ptr, ptr %2, align 8
  %4 = call i64 @strlen(ptr noundef %3) #2
  ret i64 %4
}

; Function Attrs: mustprogress nounwind uwtable
define internal void @_ZN12_GLOBAL__N_125CheckDebugifyFunctionPassC2EbN4llvm9StringRefEPNS1_9MapVectorIS2_18DebugifyStatisticsNS1_8DenseMapIS2_jNS1_12DenseMapInfoIS2_vEENS1_6detail12DenseMapPairIS2_jEEEENS1_11SmallVectorISt4pairIS2_S4_ELj0EEEEE12DebugifyModeP16DebugInfoPerPassS2_(ptr noundef nonnull align 8 dereferenceable(85) %0, i1 noundef zeroext %1, ptr %2, i64 %3, ptr noundef %4, i32 noundef %5, ptr noundef %6, ptr noundef byval(%"class.llvm::StringRef") align 8 %7) unnamed_addr #1 align 2 {
  %9 = alloca %"class.llvm::StringRef", align 8
  %10 = alloca ptr, align 8
  %11 = alloca i8, align 1
  %12 = alloca ptr, align 8
  %13 = alloca i32, align 4
  %14 = alloca ptr, align 8
  %15 = getelementptr inbounds nuw { ptr, i64 }, ptr %9, i32 0, i32 0
  store ptr %2, ptr %15, align 8
  %16 = getelementptr inbounds nuw { ptr, i64 }, ptr %9, i32 0, i32 1
  store i64 %3, ptr %16, align 8
  store ptr %0, ptr %10, align 8
  %17 = zext i1 %1 to i8
  store i8 %17, ptr %11, align 1
  store ptr %4, ptr %12, align 8
  store i32 %5, ptr %13, align 4
  store ptr %6, ptr %14, align 8
  %18 = load ptr, ptr %10, align 8
  call void @_ZN4llvm12FunctionPassC2ERc(ptr noundef nonnull align 8 dereferenceable(28) %18, ptr noundef nonnull align 1 dereferenceable(1) @_ZN12_GLOBAL__N_125CheckDebugifyFunctionPass2IDE)
  store ptr getelementptr inbounds inrange(-16, 144) ({ [20 x ptr] }, ptr @_ZTVN12_GLOBAL__N_125CheckDebugifyFunctionPassE, i32 0, i32 0, i32 2), ptr %18, align 8
  %19 = getelementptr inbounds nuw %"struct.(anonymous namespace)::CheckDebugifyFunctionPass", ptr %18, i32 0, i32 2
  call void @llvm.memcpy.p0.p0.i64(ptr align 8 %19, ptr align 8 %9, i64 16, i1 false)
  %20 = getelementptr inbounds nuw %"struct.(anonymous namespace)::CheckDebugifyFunctionPass", ptr %18, i32 0, i32 3
  call void @llvm.memcpy.p0.p0.i64(ptr align 8 %20, ptr align 8 %7, i64 16, i1 false)
  %21 = getelementptr inbounds nuw %"struct.(anonymous namespace)::CheckDebugifyFunctionPass", ptr %18, i32 0, i32 4
  %22 = load ptr, ptr %12, align 8
  store ptr %22, ptr %21, align 8
  %23 = getelementptr inbounds nuw %"struct.(anonymous namespace)::CheckDebugifyFunctionPass", ptr %18, i32 0, i32 5
  %24 = load ptr, ptr %14, align 8
  store ptr %24, ptr %23, align 8
  %25 = getelementptr inbounds nuw %"struct.(anonymous namespace)::CheckDebugifyFunctionPass", ptr %18, i32 0, i32 6
  %26 = load i32, ptr %13, align 4
  store i32 %26, ptr %25, align 8
  %27 = getelementptr inbounds nuw %"struct.(anonymous namespace)::CheckDebugifyFunctionPass", ptr %18, i32 0, i32 7
  %28 = load i8, ptr %11, align 1
  %29 = trunc i8 %28 to i1
  %30 = zext i1 %29 to i8
  store i8 %30, ptr %27, align 4
  ret void
}

; Function Attrs: mustprogress nounwind uwtable
define linkonce_odr hidden void @_ZN4llvm9StringRefC2EPKc(ptr noundef nonnull align 8 dereferenceable(16) %0, ptr noundef %1) unnamed_addr #1 comdat align 2 {
  %3 = alloca ptr, align 8
  %4 = alloca ptr, align 8
  store ptr %0, ptr %3, align 8
  store ptr %1, ptr %4, align 8
  %5 = load ptr, ptr %3, align 8
  %6 = getelementptr inbounds nuw %"class.llvm::StringRef", ptr %5, i32 0, i32 0
  %7 = load ptr, ptr %4, align 8
  store ptr %7, ptr %6, align 8
  %8 = getelementptr inbounds nuw %"class.llvm::StringRef", ptr %5, i32 0, i32 1
  %9 = load ptr, ptr %4, align 8
  %10 = icmp ne ptr %9, null
  br i1 %10, label %11, label %14

11:                                               ; preds = %2
  %12 = load ptr, ptr %4, align 8
  %13 = call noundef i64 @_ZNSt11char_traitsIcE6lengthEPKc(ptr noundef %12)
  br label %15

14:                                               ; preds = %2
  br label %15

15:                                               ; preds = %14, %11
  %16 = phi i64 [ %13, %11 ], [ 0, %14 ]
  store i64 %16, ptr %8, align 8
  ret void
}

; Function Attrs: mustprogress nounwind uwtable
define internal noundef ptr @_ZN4llvm15callDefaultCtorIN12_GLOBAL__N_125CheckDebugifyFunctionPassETnNSt9enable_ifIXtlSt24is_default_constructibleIT_EEEbE4typeELb1EEEPNS_4PassEv() #1 {
  %1 = alloca %"class.llvm::StringRef", align 8
  %2 = alloca %"class.llvm::StringRef", align 8
  %3 = call noalias noundef nonnull ptr @_Znwm(i64 noundef 88) #18
  call void @_ZN4llvm9StringRefC2EPKc(ptr noundef nonnull align 8 dereferenceable(16) %1, ptr noundef @.str.16)
  call void @_ZN4llvm9StringRefC2EPKc(ptr noundef nonnull align 8 dereferenceable(16) %2, ptr noundef @.str.16)
  %4 = getelementptr inbounds nuw { ptr, i64 }, ptr %1, i32 0, i32 0
  %5 = load ptr, ptr %4, align 8
  %6 = getelementptr inbounds nuw { ptr, i64 }, ptr %1, i32 0, i32 1
  %7 = load i64, ptr %6, align 8
  call void @_ZN12_GLOBAL__N_125CheckDebugifyFunctionPassC2EbN4llvm9StringRefEPNS1_9MapVectorIS2_18DebugifyStatisticsNS1_8DenseMapIS2_jNS1_12DenseMapInfoIS2_vEENS1_6detail12DenseMapPairIS2_jEEEENS1_11SmallVectorISt4pairIS2_S4_ELj0EEEEE12DebugifyModeP16DebugInfoPerPassS2_(ptr noundef nonnull align 8 dereferenceable(85) %3, i1 noundef zeroext false, ptr %5, i64 %7, ptr noundef null, i32 noundef 1, ptr noundef null, ptr noundef byval(%"class.llvm::StringRef") align 8 %2)
  ret ptr %3
}