; Function Attrs: mustprogress nounwind uwtable
define internal noalias noundef nonnull ptr @_ZN4llvm15callDefaultCtorIN12_GLOBAL__N_125CheckDebugifyFunctionPassETnNSt9enable_ifIXtlSt24is_default_constructibleIT_EEEbE4typeELb1EEEPNS_4PassEv() #0 {
  %1 = tail call noalias noundef nonnull dereferenceable(88) ptr @_Znwm(i64 noundef 88) #27
  %2 = getelementptr inbounds nuw i8, ptr %1, i64 8
  store ptr null, ptr %2, align 8
  %3 = getelementptr inbounds nuw i8, ptr %1, i64 16
  store ptr @_ZN12_GLOBAL__N_125CheckDebugifyFunctionPass2IDE, ptr %3, align 8
  %4 = getelementptr inbounds nuw i8, ptr %1, i64 24
  store i32 2, ptr %4, align 8
  store ptr getelementptr inbounds nuw inrange(-16, 144) (i8, ptr @_ZTVN12_GLOBAL__N_125CheckDebugifyFunctionPassE, i64 16), ptr %1, align 8
  %5 = getelementptr inbounds nuw i8, ptr %1, i64 32
  store ptr @.str.16, ptr %5, align 8
  %.sroa.2.0..sroa_idx.i = getelementptr inbounds nuw i8, ptr %1, i64 40
  store i64 0, ptr %.sroa.2.0..sroa_idx.i, align 8
  %6 = getelementptr inbounds nuw i8, ptr %1, i64 48
  store ptr @.str.16, ptr %6, align 8
  %.sroa.4.0..sroa_idx = getelementptr inbounds nuw i8, ptr %1, i64 56
  %7 = getelementptr inbounds nuw i8, ptr %1, i64 80
  tail call void @llvm.memset.p0.i64(ptr noundef nonnull align 8 dereferenceable(24) %.sroa.4.0..sroa_idx, i8 0, i64 24, i1 false)
  store i32 1, ptr %7, align 8
  %8 = getelementptr inbounds nuw i8, ptr %1, i64 84
  store i8 0, ptr %8, align 4
  ret ptr %1
}